; Function Attrs: mustprogress uwtable
define hidden noundef ptr @get_proc_handle(ptr noundef %0, ptr noundef %1) local_unnamed_addr #0 {
  %3 = load ptr, ptr @_ZL18p_ps_prochandle_ID, align 8
  %4 = load ptr, ptr %0, align 8
  %5 = getelementptr inbounds i8, ptr %4, i64 808
  %6 = load ptr, ptr %5, align 8
  %7 = tail call noundef i64 %6(ptr noundef nonnull %0, ptr noundef %1, ptr noundef %3)
  %8 = inttoptr i64 %7 to ptr
  ret ptr %8
}